target datalayout = "e-m:e-p270:32:32-p271:32:32-p272:64:64-i64:64-i128:128-f80:128-n8:16:32:64-S128"
target triple = "x86_64-pc-linux-gnu"

%class.LIR_Opr = type { i64 }
%class.ZLoadBarrierStubC1 = type { %class.CodeStub, i64, %class.LIR_Opr, %class.LIR_Opr, %class.LIR_Opr, ptr }
%class.CodeStub = type { ptr, %class.Label, %class.Label }
%class.Label = type <{ i32, [4 x i32], i32, ptr, i8, [7 x i8] }>
%class.LIR_Address = type <{ %class.LIR_OprPtr, %class.LIR_Opr, %class.LIR_Opr, i32, [4 x i8], i64, i8, [7 x i8] }>
%class.LIR_OprPtr = type { ptr }
%class.LIR_OpVisitState = type <{ ptr, [3 x i32], [4 x i8], [3 x [21 x ptr]], i32, [4 x i8], [4 x ptr], i8, i8, [6 x i8] }>

; Function Attrs: mustprogress nounwind uwtable
define linkonce_odr hidden void @_ZNK7LIR_Opr13validate_typeEv(ptr noundef nonnull align 8 dereferenceable(8) %0) #1 comdat align 2 {
  %2 = alloca ptr, align 8
  store ptr %0, ptr %2, align 8
  ret void
}

; Function Attrs: mustprogress nounwind uwtable
define linkonce_odr hidden noundef ptr @_ZNK7LIR_Opr7pointerEv(ptr noundef nonnull align 8 dereferenceable(8) %0) #1 comdat align 2 {
  %2 = alloca ptr, align 8
  store ptr %0, ptr %2, align 8
  %3 = load ptr, ptr %2, align 8
  %4 = getelementptr inbounds %class.LIR_Opr, ptr %3, i32 0, i32 0
  %5 = load i64, ptr %4, align 8
  %6 = inttoptr i64 %5 to ptr
  ret ptr %6
}

; Function Attrs: mustprogress nounwind uwtable
define linkonce_odr hidden noundef zeroext i1 @_ZNK7LIR_Opr16check_value_maskEll(ptr noundef nonnull align 8 dereferenceable(8) %0, i64 noundef %1, i64 noundef %2) #1 comdat align 2 {
  %4 = alloca ptr, align 8
  %5 = alloca i64, align 8
  %6 = alloca i64, align 8
  store ptr %0, ptr %4, align 8
  store i64 %1, ptr %5, align 8
  store i64 %2, ptr %6, align 8
  %7 = load ptr, ptr %4, align 8
  %8 = call noundef i64 @_ZNK7LIR_Opr5valueEv(ptr noundef nonnull align 8 dereferenceable(8) %7)
  %9 = load i64, ptr %5, align 8
  %10 = and i64 %8, %9
  %11 = load i64, ptr %6, align 8
  %12 = icmp eq i64 %10, %11
  ret i1 %12
}

; Function Attrs: mustprogress nounwind uwtable
define linkonce_odr hidden noundef zeroext i1 @_ZNK7LIR_Opr15is_fpu_registerEv(ptr noundef nonnull align 8 dereferenceable(8) %0) #1 comdat align 2 {
  %2 = alloca ptr, align 8
  store ptr %0, ptr %2, align 8
  %3 = load ptr, ptr %2, align 8
  call void @_ZNK7LIR_Opr13validate_typeEv(ptr noundef nonnull align 8 dereferenceable(8) %3)
  %4 = call noundef zeroext i1 @_ZNK7LIR_Opr16check_value_maskEll(ptr noundef nonnull align 8 dereferenceable(8) %3, i64 noundef 7, i64 noundef 5)
  ret i1 %4
}

; Function Attrs: mustprogress nounwind uwtable
define linkonce_odr hidden noundef zeroext i1 @_ZNK7LIR_Opr15is_cpu_registerEv(ptr noundef nonnull align 8 dereferenceable(8) %0) #1 comdat align 2 {
  %2 = alloca ptr, align 8
  store ptr %0, ptr %2, align 8
  %3 = load ptr, ptr %2, align 8
  call void @_ZNK7LIR_Opr13validate_typeEv(ptr noundef nonnull align 8 dereferenceable(8) %3)
  %4 = call noundef zeroext i1 @_ZNK7LIR_Opr16check_value_maskEll(ptr noundef nonnull align 8 dereferenceable(8) %3, i64 noundef 7, i64 noundef 3)
  ret i1 %4
}

; Function Attrs: mustprogress nounwind uwtable
define linkonce_odr hidden noundef i64 @_ZNK7LIR_Opr5valueEv(ptr noundef nonnull align 8 dereferenceable(8) %0) #1 comdat align 2 {
  %2 = alloca ptr, align 8
  store ptr %0, ptr %2, align 8
  %3 = load ptr, ptr %2, align 8
  %4 = getelementptr inbounds %class.LIR_Opr, ptr %3, i32 0, i32 0
  %5 = load i64, ptr %4, align 8
  ret i64 %5
}

; Function Attrs: mustprogress nounwind uwtable
define linkonce_odr hidden noundef ptr @_ZNK7LIR_Opr14as_address_ptrEv(ptr noundef nonnull align 8 dereferenceable(8) %0) #1 comdat align 2 {
  %2 = alloca ptr, align 8
  store ptr %0, ptr %2, align 8
  %3 = load ptr, ptr %2, align 8
  %4 = call noundef ptr @_ZNK7LIR_Opr7pointerEv(ptr noundef nonnull align 8 dereferenceable(8) %3)
  %5 = load ptr, ptr %4, align 8
  %6 = getelementptr inbounds ptr, ptr %5, i64 1
  %7 = load ptr, ptr %6, align 8
  %8 = call noundef ptr %7(ptr noundef nonnull align 8 dereferenceable(8) %4)
  ret ptr %8
}

; Function Attrs: mustprogress nounwind uwtable
define linkonce_odr hidden noundef zeroext i1 @_ZNK7LIR_Opr10is_pointerEv(ptr noundef nonnull align 8 dereferenceable(8) %0) #1 comdat align 2 {
  %2 = alloca ptr, align 8
  store ptr %0, ptr %2, align 8
  %3 = load ptr, ptr %2, align 8
  %4 = call noundef zeroext i1 @_ZNK7LIR_Opr16check_value_maskEll(ptr noundef nonnull align 8 dereferenceable(8) %3, i64 noundef 1, i64 noundef 0)
  ret i1 %4
}

; Function Attrs: mustprogress nounwind uwtable
define linkonce_odr hidden noundef zeroext i1 @_ZNK7LIR_Opr11is_registerEv(ptr noundef nonnull align 8 dereferenceable(8) %0) #1 comdat align 2 {
  %2 = alloca ptr, align 8
  store ptr %0, ptr %2, align 8
  %3 = load ptr, ptr %2, align 8
  %4 = call noundef zeroext i1 @_ZNK7LIR_Opr15is_cpu_registerEv(ptr noundef nonnull align 8 dereferenceable(8) %3)
  br i1 %4, label %7, label %5

5:                                                ; preds = %1
  %6 = call noundef zeroext i1 @_ZNK7LIR_Opr15is_fpu_registerEv(ptr noundef nonnull align 8 dereferenceable(8) %3)
  br label %7

7:                                                ; preds = %5, %1
  %8 = phi i1 [ true, %1 ], [ %6, %5 ]
  ret i1 %8
}

; Function Attrs: mustprogress nounwind uwtable
define linkonce_odr hidden noundef i32 @_ZNK7LIR_Opr10kind_fieldEv(ptr noundef nonnull align 8 dereferenceable(8) %0) #1 comdat align 2 {
  %2 = alloca ptr, align 8
  store ptr %0, ptr %2, align 8
  %3 = load ptr, ptr %2, align 8
  %4 = call noundef i64 @_ZNK7LIR_Opr5valueEv(ptr noundef nonnull align 8 dereferenceable(8) %3)
  %5 = and i64 %4, 7
  %6 = trunc i64 %5 to i32
  ret i32 %6
}

; Function Attrs: mustprogress nounwind uwtable
define linkonce_odr hidden void @_ZN16LIR_OpVisitState6appendER7LIR_OprNS_7OprModeE(ptr noundef nonnull align 8 dereferenceable(570) %0, ptr noundef nonnull align 8 dereferenceable(8) %1, i32 noundef %2) #1 comdat align 2 {
  %4 = alloca ptr, align 8
  %5 = alloca ptr, align 8
  %6 = alloca i32, align 4
  %7 = alloca ptr, align 8
  store ptr %0, ptr %4, align 8
  store ptr %1, ptr %5, align 8
  store i32 %2, ptr %6, align 4
  %8 = load ptr, ptr %4, align 8
  %9 = load ptr, ptr %5, align 8
  %10 = call noundef ptr @_ZN7LIR_OprptEv(ptr noundef nonnull align 8 dereferenceable(8) %9)
  %11 = call noundef zeroext i1 @_ZNK7LIR_Opr11is_registerEv(ptr noundef nonnull align 8 dereferenceable(8) %10)
  br i1 %11, label %12, label %26

12:                                               ; preds = %3
  %13 = load ptr, ptr %5, align 8
  %14 = getelementptr inbounds %class.LIR_OpVisitState, ptr %8, i32 0, i32 3
  %15 = load i32, ptr %6, align 4
  %16 = sext i32 %15 to i64
  %17 = getelementptr inbounds [3 x [21 x ptr]], ptr %14, i64 0, i64 %16
  %18 = getelementptr inbounds %class.LIR_OpVisitState, ptr %8, i32 0, i32 1
  %19 = load i32, ptr %6, align 4
  %20 = sext i32 %19 to i64
  %21 = getelementptr inbounds [3 x i32], ptr %18, i64 0, i64 %20
  %22 = load i32, ptr %21, align 4
  %23 = add nsw i32 %22, 1
  store i32 %23, ptr %21, align 4
  %24 = sext i32 %22 to i64
  %25 = getelementptr inbounds [21 x ptr], ptr %17, i64 0, i64 %24
  store ptr %13, ptr %25, align 8
  br label %85

26:                                               ; preds = %3
  %27 = load ptr, ptr %5, align 8
  %28 = call noundef ptr @_ZN7LIR_OprptEv(ptr noundef nonnull align 8 dereferenceable(8) %27)
  %29 = call noundef zeroext i1 @_ZNK7LIR_Opr10is_pointerEv(ptr noundef nonnull align 8 dereferenceable(8) %28)
  br i1 %29, label %30, label %83

30:                                               ; preds = %26
  %31 = load ptr, ptr %5, align 8
  %32 = call noundef ptr @_ZN7LIR_OprptEv(ptr noundef nonnull align 8 dereferenceable(8) %31)
  %33 = call noundef ptr @_ZNK7LIR_Opr14as_address_ptrEv(ptr noundef nonnull align 8 dereferenceable(8) %32)
  store ptr %33, ptr %7, align 8
  %34 = load ptr, ptr %7, align 8
  %35 = icmp ne ptr %34, null
  br i1 %35, label %36, label %81

36:                                               ; preds = %30
  %37 = load i32, ptr %6, align 4
  %38 = icmp eq i32 %37, 2
  br i1 %38, label %39, label %40

39:                                               ; preds = %36
  store i32 0, ptr %6, align 4
  br label %40

40:                                               ; preds = %39, %36
  %41 = load ptr, ptr %7, align 8
  %42 = getelementptr inbounds %class.LIR_Address, ptr %41, i32 0, i32 1
  %43 = call noundef ptr @_ZN7LIR_OprptEv(ptr noundef nonnull align 8 dereferenceable(8) %42)
  %44 = call noundef zeroext i1 @_ZNK7LIR_Opr8is_validEv(ptr noundef nonnull align 8 dereferenceable(8) %43)
  br i1 %44, label %45, label %60

45:                                               ; preds = %40
  %46 = load ptr, ptr %7, align 8
  %47 = getelementptr inbounds %class.LIR_Address, ptr %46, i32 0, i32 1
  %48 = getelementptr inbounds %class.LIR_OpVisitState, ptr %8, i32 0, i32 3
  %49 = load i32, ptr %6, align 4
  %50 = sext i32 %49 to i64
  %51 = getelementptr inbounds [3 x [21 x ptr]], ptr %48, i64 0, i64 %50
  %52 = getelementptr inbounds %class.LIR_OpVisitState, ptr %8, i32 0, i32 1
  %53 = load i32, ptr %6, align 4
  %54 = sext i32 %53 to i64
  %55 = getelementptr inbounds [3 x i32], ptr %52, i64 0, i64 %54
  %56 = load i32, ptr %55, align 4
  %57 = add nsw i32 %56, 1
  store i32 %57, ptr %55, align 4
  %58 = sext i32 %56 to i64
  %59 = getelementptr inbounds [21 x ptr], ptr %51, i64 0, i64 %58
  store ptr %47, ptr %59, align 8
  br label %60

60:                                               ; preds = %45, %40
  %61 = load ptr, ptr %7, align 8
  %62 = getelementptr inbounds %class.LIR_Address, ptr %61, i32 0, i32 2
  %63 = call noundef ptr @_ZN7LIR_OprptEv(ptr noundef nonnull align 8 dereferenceable(8) %62)
  %64 = call noundef zeroext i1 @_ZNK7LIR_Opr8is_validEv(ptr noundef nonnull align 8 dereferenceable(8) %63)
  br i1 %64, label %65, label %80

65:                                               ; preds = %60
  %66 = load ptr, ptr %7, align 8
  %67 = getelementptr inbounds %class.LIR_Address, ptr %66, i32 0, i32 2
  %68 = getelementptr inbounds %class.LIR_OpVisitState, ptr %8, i32 0, i32 3
  %69 = load i32, ptr %6, align 4
  %70 = sext i32 %69 to i64
  %71 = getelementptr inbounds [3 x [21 x ptr]], ptr %68, i64 0, i64 %70
  %72 = getelementptr inbounds %class.LIR_OpVisitState, ptr %8, i32 0, i32 1
  %73 = load i32, ptr %6, align 4
  %74 = sext i32 %73 to i64
  %75 = getelementptr inbounds [3 x i32], ptr %72, i64 0, i64 %74
  %76 = load i32, ptr %75, align 4
  %77 = add nsw i32 %76, 1
  store i32 %77, ptr %75, align 4
  %78 = sext i32 %76 to i64
  %79 = getelementptr inbounds [21 x ptr], ptr %71, i64 0, i64 %78
  store ptr %67, ptr %79, align 8
  br label %80

80:                                               ; preds = %65, %60
  br label %82

81:                                               ; preds = %30
  br label %82

82:                                               ; preds = %81, %80
  br label %84

83:                                               ; preds = %26
  br label %84

84:                                               ; preds = %83, %82
  br label %85

85:                                               ; preds = %84, %12
  ret void
}

; Function Attrs: mustprogress nounwind uwtable
define linkonce_odr hidden void @_ZN16LIR_OpVisitState7do_tempER7LIR_Opr(ptr noundef nonnull align 8 dereferenceable(570) %0, ptr noundef nonnull align 8 dereferenceable(8) %1) #1 comdat align 2 {
  %3 = alloca ptr, align 8
  %4 = alloca ptr, align 8
  store ptr %0, ptr %3, align 8
  store ptr %1, ptr %4, align 8
  %5 = load ptr, ptr %3, align 8
  %6 = load ptr, ptr %4, align 8
  call void @_ZN16LIR_OpVisitState6appendER7LIR_OprNS_7OprModeE(ptr noundef nonnull align 8 dereferenceable(570) %5, ptr noundef nonnull align 8 dereferenceable(8) %6, i32 noundef 1)
  ret void
}

; Function Attrs: mustprogress nounwind uwtable
define linkonce_odr hidden noundef zeroext i1 @_ZNK7LIR_Opr8is_validEv(ptr noundef nonnull align 8 dereferenceable(8) %0) #1 comdat align 2 {
  %2 = alloca ptr, align 8
  store ptr %0, ptr %2, align 8
  %3 = load ptr, ptr %2, align 8
  %4 = call noundef i32 @_ZNK7LIR_Opr10kind_fieldEv(ptr noundef nonnull align 8 dereferenceable(8) %3)
  %5 = icmp ne i32 %4, 7
  ret i1 %5
}

; Function Attrs: mustprogress nounwind uwtable
define linkonce_odr hidden noundef ptr @_ZN7LIR_OprptEv(ptr noundef nonnull align 8 dereferenceable(8) %0) #1 comdat align 2 {
  %2 = alloca ptr, align 8
  store ptr %0, ptr %2, align 8
  %3 = load ptr, ptr %2, align 8
  ret ptr %3
}

; Function Attrs: mustprogress nounwind uwtable
define linkonce_odr hidden void @_ZN16LIR_OpVisitState9do_outputER7LIR_Opr(ptr noundef nonnull align 8 dereferenceable(570) %0, ptr noundef nonnull align 8 dereferenceable(8) %1) #1 comdat align 2 {
  %3 = alloca ptr, align 8
  %4 = alloca ptr, align 8
  store ptr %0, ptr %3, align 8
  store ptr %1, ptr %4, align 8
  %5 = load ptr, ptr %3, align 8
  %6 = load ptr, ptr %4, align 8
  call void @_ZN16LIR_OpVisitState6appendER7LIR_OprNS_7OprModeE(ptr noundef nonnull align 8 dereferenceable(570) %5, ptr noundef nonnull align 8 dereferenceable(8) %6, i32 noundef 2)
  ret void
}

; Function Attrs: mustprogress nounwind uwtable
define linkonce_odr hidden void @_ZN16LIR_OpVisitState8do_inputER7LIR_Opr(ptr noundef nonnull align 8 dereferenceable(570) %0, ptr noundef nonnull align 8 dereferenceable(8) %1) #1 comdat align 2 {
  %3 = alloca ptr, align 8
  %4 = alloca ptr, align 8
  store ptr %0, ptr %3, align 8
  store ptr %1, ptr %4, align 8
  %5 = load ptr, ptr %3, align 8
  %6 = load ptr, ptr %4, align 8
  call void @_ZN16LIR_OpVisitState6appendER7LIR_OprNS_7OprModeE(ptr noundef nonnull align 8 dereferenceable(570) %5, ptr noundef nonnull align 8 dereferenceable(8) %6, i32 noundef 0)
  ret void
}

; Function Attrs: mustprogress nounwind uwtable
define linkonce_odr hidden void @_ZN16LIR_OpVisitState12do_slow_caseEv(ptr noundef nonnull align 8 dereferenceable(570) %0) #1 comdat align 2 {
  %2 = alloca ptr, align 8
  store ptr %0, ptr %2, align 8
  %3 = load ptr, ptr %2, align 8
  %4 = getelementptr inbounds %class.LIR_OpVisitState, ptr %3, i32 0, i32 8
  store i8 1, ptr %4, align 1
  ret void
}

; Function Attrs: mustprogress nounwind uwtable
define hidden void @_ZN18ZLoadBarrierStubC15visitEP16LIR_OpVisitState(ptr noundef nonnull align 8 dereferenceable(128) %0, ptr noundef %1) unnamed_addr #1 align 2 {
  %3 = alloca ptr, align 8
  %4 = alloca ptr, align 8
  store ptr %0, ptr %3, align 8
  store ptr %1, ptr %4, align 8
  %5 = load ptr, ptr %3, align 8
  %6 = load ptr, ptr %4, align 8
  call void @_ZN16LIR_OpVisitState12do_slow_caseEv(ptr noundef nonnull align 8 dereferenceable(570) %6)
  %7 = load ptr, ptr %4, align 8
  %8 = getelementptr inbounds %class.ZLoadBarrierStubC1, ptr %5, i32 0, i32 2
  call void @_ZN16LIR_OpVisitState8do_inputER7LIR_Opr(ptr noundef nonnull align 8 dereferenceable(570) %7, ptr noundef nonnull align 8 dereferenceable(8) %8)
  %9 = load ptr, ptr %4, align 8
  %10 = getelementptr inbounds %class.ZLoadBarrierStubC1, ptr %5, i32 0, i32 3
  call void @_ZN16LIR_OpVisitState8do_inputER7LIR_Opr(ptr noundef nonnull align 8 dereferenceable(570) %9, ptr noundef nonnull align 8 dereferenceable(8) %10)
  %11 = load ptr, ptr %4, align 8
  %12 = getelementptr inbounds %class.ZLoadBarrierStubC1, ptr %5, i32 0, i32 3
  call void @_ZN16LIR_OpVisitState9do_outputER7LIR_Opr(ptr noundef nonnull align 8 dereferenceable(570) %11, ptr noundef nonnull align 8 dereferenceable(8) %12)
  %13 = getelementptr inbounds %class.ZLoadBarrierStubC1, ptr %5, i32 0, i32 4
  %14 = call noundef ptr @_ZN7LIR_OprptEv(ptr noundef nonnull align 8 dereferenceable(8) %13)
  %15 = call noundef zeroext i1 @_ZNK7LIR_Opr8is_validEv(ptr noundef nonnull align 8 dereferenceable(8) %14)
  br i1 %15, label %16, label %19

16:                                               ; preds = %2
  %17 = load ptr, ptr %4, align 8
  %18 = getelementptr inbounds %class.ZLoadBarrierStubC1, ptr %5, i32 0, i32 4
  call void @_ZN16LIR_OpVisitState7do_tempER7LIR_Opr(ptr noundef nonnull align 8 dereferenceable(570) %17, ptr noundef nonnull align 8 dereferenceable(8) %18)
  br label %19

19:                                               ; preds = %16, %2
  ret void
}