; Function Attrs: mustprogress nounwind uwtable
define hidden void @_ZN18ZLoadBarrierStubC15visitEP16LIR_OpVisitState(ptr noundef nonnull align 8 dereferenceable(128) %0, ptr nocapture noundef %1) unnamed_addr #0 align 2 {
  %3 = getelementptr inbounds i8, ptr %1, i64 569
  store i8 1, ptr %3, align 1
  %4 = getelementptr inbounds i8, ptr %0, i64 96
  %5 = load i64, ptr %4, align 8
  %6 = and i64 %5, 7
  switch i64 %6, label %7 [
    i64 5, label %.sink.split.i.i
    i64 3, label %.sink.split.i.i
  ]

7:                                                ; preds = %2
  %8 = and i64 %5, 1
  %9 = icmp eq i64 %8, 0
  br i1 %9, label %10, label %_ZN16LIR_OpVisitState8do_inputER7LIR_Opr.exit

10:                                               ; preds = %7
  %11 = inttoptr i64 %5 to ptr
  %12 = load ptr, ptr %11, align 8
  %13 = getelementptr inbounds i8, ptr %12, i64 8
  %14 = load ptr, ptr %13, align 8
  %15 = tail call noundef ptr %14(ptr noundef nonnull align 8 dereferenceable(8) %11) #10
  %.not.i.i = icmp eq ptr %15, null
  br i1 %.not.i.i, label %_ZN16LIR_OpVisitState8do_inputER7LIR_Opr.exit, label %16

16:                                               ; preds = %10
  %17 = getelementptr inbounds i8, ptr %15, i64 8
  %18 = load i64, ptr %17, align 8
  %19 = and i64 %18, 7
  %.not16.i.i = icmp eq i64 %19, 7
  br i1 %.not16.i.i, label %27, label %20

20:                                               ; preds = %16
  %21 = getelementptr inbounds i8, ptr %1, i64 24
  %22 = getelementptr inbounds i8, ptr %1, i64 8
  %23 = load i32, ptr %22, align 4
  %24 = add nsw i32 %23, 1
  store i32 %24, ptr %22, align 4
  %25 = sext i32 %23 to i64
  %26 = getelementptr inbounds [3 x [21 x ptr]], ptr %21, i64 0, i64 0, i64 %25
  store ptr %17, ptr %26, align 8
  br label %27

27:                                               ; preds = %20, %16
  %28 = getelementptr inbounds i8, ptr %15, i64 16
  %29 = load i64, ptr %28, align 8
  %30 = and i64 %29, 7
  %.not17.i.i = icmp eq i64 %30, 7
  br i1 %.not17.i.i, label %_ZN16LIR_OpVisitState8do_inputER7LIR_Opr.exit, label %.sink.split.i.i

.sink.split.i.i:                                  ; preds = %27, %2, %2
  %.sink.i.i = phi ptr [ %4, %2 ], [ %4, %2 ], [ %28, %27 ]
  %31 = getelementptr inbounds i8, ptr %1, i64 24
  %32 = getelementptr inbounds i8, ptr %1, i64 8
  %33 = load i32, ptr %32, align 4
  %34 = add nsw i32 %33, 1
  store i32 %34, ptr %32, align 4
  %35 = sext i32 %33 to i64
  %36 = getelementptr inbounds [3 x [21 x ptr]], ptr %31, i64 0, i64 0, i64 %35
  store ptr %.sink.i.i, ptr %36, align 8
  br label %_ZN16LIR_OpVisitState8do_inputER7LIR_Opr.exit

_ZN16LIR_OpVisitState8do_inputER7LIR_Opr.exit:    ; preds = %7, %10, %27, %.sink.split.i.i
  %37 = getelementptr inbounds i8, ptr %0, i64 104
  %38 = load i64, ptr %37, align 8
  %39 = and i64 %38, 7
  switch i64 %39, label %40 [
    i64 5, label %.sink.split.i.i6
    i64 3, label %.sink.split.i.i6
  ]

40:                                               ; preds = %_ZN16LIR_OpVisitState8do_inputER7LIR_Opr.exit
  %41 = and i64 %38, 1
  %42 = icmp eq i64 %41, 0
  br i1 %42, label %43, label %_ZN16LIR_OpVisitState8do_inputER7LIR_Opr.exit11

43:                                               ; preds = %40
  %44 = inttoptr i64 %38 to ptr
  %45 = load ptr, ptr %44, align 8
  %46 = getelementptr inbounds i8, ptr %45, i64 8
  %47 = load ptr, ptr %46, align 8
  %48 = tail call noundef ptr %47(ptr noundef nonnull align 8 dereferenceable(8) %44) #10
  %.not.i.i8 = icmp eq ptr %48, null
  br i1 %.not.i.i8, label %_ZN16LIR_OpVisitState8do_inputER7LIR_Opr.exit11, label %49

49:                                               ; preds = %43
  %50 = getelementptr inbounds i8, ptr %48, i64 8
  %51 = load i64, ptr %50, align 8
  %52 = and i64 %51, 7
  %.not16.i.i9 = icmp eq i64 %52, 7
  br i1 %.not16.i.i9, label %60, label %53

53:                                               ; preds = %49
  %54 = getelementptr inbounds i8, ptr %1, i64 24
  %55 = getelementptr inbounds i8, ptr %1, i64 8
  %56 = load i32, ptr %55, align 4
  %57 = add nsw i32 %56, 1
  store i32 %57, ptr %55, align 4
  %58 = sext i32 %56 to i64
  %59 = getelementptr inbounds [3 x [21 x ptr]], ptr %54, i64 0, i64 0, i64 %58
  store ptr %50, ptr %59, align 8
  br label %60

60:                                               ; preds = %53, %49
  %61 = getelementptr inbounds i8, ptr %48, i64 16
  %62 = load i64, ptr %61, align 8
  %63 = and i64 %62, 7
  %.not17.i.i10 = icmp eq i64 %63, 7
  br i1 %.not17.i.i10, label %_ZN16LIR_OpVisitState8do_inputER7LIR_Opr.exit11, label %.sink.split.i.i6

.sink.split.i.i6:                                 ; preds = %60, %_ZN16LIR_OpVisitState8do_inputER7LIR_Opr.exit, %_ZN16LIR_OpVisitState8do_inputER7LIR_Opr.exit
  %.sink.i.i7 = phi ptr [ %37, %_ZN16LIR_OpVisitState8do_inputER7LIR_Opr.exit ], [ %37, %_ZN16LIR_OpVisitState8do_inputER7LIR_Opr.exit ], [ %61, %60 ]
  %64 = getelementptr inbounds i8, ptr %1, i64 24
  %65 = getelementptr inbounds i8, ptr %1, i64 8
  %66 = load i32, ptr %65, align 4
  %67 = add nsw i32 %66, 1
  store i32 %67, ptr %65, align 4
  %68 = sext i32 %66 to i64
  %69 = getelementptr inbounds [3 x [21 x ptr]], ptr %64, i64 0, i64 0, i64 %68
  store ptr %.sink.i.i7, ptr %69, align 8
  br label %_ZN16LIR_OpVisitState8do_inputER7LIR_Opr.exit11

_ZN16LIR_OpVisitState8do_inputER7LIR_Opr.exit11:  ; preds = %40, %43, %60, %.sink.split.i.i6
  %70 = load i64, ptr %37, align 8
  %71 = and i64 %70, 7
  switch i64 %71, label %72 [
    i64 5, label %.sink.split.i.i12
    i64 3, label %.sink.split.i.i12
  ]

72:                                               ; preds = %_ZN16LIR_OpVisitState8do_inputER7LIR_Opr.exit11
  %73 = and i64 %70, 1
  %74 = icmp eq i64 %73, 0
  br i1 %74, label %75, label %_ZN16LIR_OpVisitState9do_outputER7LIR_Opr.exit

75:                                               ; preds = %72
  %76 = inttoptr i64 %70 to ptr
  %77 = load ptr, ptr %76, align 8
  %78 = getelementptr inbounds i8, ptr %77, i64 8
  %79 = load ptr, ptr %78, align 8
  %80 = tail call noundef ptr %79(ptr noundef nonnull align 8 dereferenceable(8) %76) #10
  %.not.i.i14 = icmp eq ptr %80, null
  br i1 %.not.i.i14, label %_ZN16LIR_OpVisitState9do_outputER7LIR_Opr.exit, label %81

81:                                               ; preds = %75
  %82 = getelementptr inbounds i8, ptr %80, i64 8
  %83 = load i64, ptr %82, align 8
  %84 = and i64 %83, 7
  %.not16.i.i15 = icmp eq i64 %84, 7
  br i1 %.not16.i.i15, label %92, label %85

85:                                               ; preds = %81
  %86 = getelementptr inbounds i8, ptr %1, i64 24
  %87 = getelementptr inbounds i8, ptr %1, i64 8
  %88 = load i32, ptr %87, align 4
  %89 = add nsw i32 %88, 1
  store i32 %89, ptr %87, align 4
  %90 = sext i32 %88 to i64
  %91 = getelementptr inbounds [3 x [21 x ptr]], ptr %86, i64 0, i64 0, i64 %90
  store ptr %82, ptr %91, align 8
  br label %92

92:                                               ; preds = %85, %81
  %93 = getelementptr inbounds i8, ptr %80, i64 16
  %94 = load i64, ptr %93, align 8
  %95 = and i64 %94, 7
  %.not17.i.i16 = icmp eq i64 %95, 7
  br i1 %.not17.i.i16, label %_ZN16LIR_OpVisitState9do_outputER7LIR_Opr.exit, label %.sink.split.i.i12

.sink.split.i.i12:                                ; preds = %92, %_ZN16LIR_OpVisitState8do_inputER7LIR_Opr.exit11, %_ZN16LIR_OpVisitState8do_inputER7LIR_Opr.exit11
  %spec.store.select.sink.i.i = phi i64 [ 2, %_ZN16LIR_OpVisitState8do_inputER7LIR_Opr.exit11 ], [ 2, %_ZN16LIR_OpVisitState8do_inputER7LIR_Opr.exit11 ], [ 0, %92 ]
  %.sink.i.i13 = phi ptr [ %37, %_ZN16LIR_OpVisitState8do_inputER7LIR_Opr.exit11 ], [ %37, %_ZN16LIR_OpVisitState8do_inputER7LIR_Opr.exit11 ], [ %93, %92 ]
  %96 = getelementptr inbounds i8, ptr %1, i64 24
  %97 = getelementptr inbounds i8, ptr %1, i64 8
  %98 = getelementptr inbounds [3 x i32], ptr %97, i64 0, i64 %spec.store.select.sink.i.i
  %99 = load i32, ptr %98, align 4
  %100 = add nsw i32 %99, 1
  store i32 %100, ptr %98, align 4
  %101 = sext i32 %99 to i64
  %102 = getelementptr inbounds [3 x [21 x ptr]], ptr %96, i64 0, i64 %spec.store.select.sink.i.i, i64 %101
  store ptr %.sink.i.i13, ptr %102, align 8
  br label %_ZN16LIR_OpVisitState9do_outputER7LIR_Opr.exit

_ZN16LIR_OpVisitState9do_outputER7LIR_Opr.exit:   ; preds = %72, %75, %92, %.sink.split.i.i12
  %103 = getelementptr inbounds i8, ptr %0, i64 112
  %104 = load i64, ptr %103, align 8
  %105 = and i64 %104, 7
  switch i64 %105, label %106 [
    i64 7, label %_ZN16LIR_OpVisitState7do_tempER7LIR_Opr.exit
    i64 5, label %.sink.split.i.i17
    i64 3, label %.sink.split.i.i17
  ]

106:                                              ; preds = %_ZN16LIR_OpVisitState9do_outputER7LIR_Opr.exit
  %107 = and i64 %104, 1
  %108 = icmp eq i64 %107, 0
  br i1 %108, label %109, label %_ZN16LIR_OpVisitState7do_tempER7LIR_Opr.exit

109:                                              ; preds = %106
  %110 = inttoptr i64 %104 to ptr
  %111 = load ptr, ptr %110, align 8
  %112 = getelementptr inbounds i8, ptr %111, i64 8
  %113 = load ptr, ptr %112, align 8
  %114 = tail call noundef ptr %113(ptr noundef nonnull align 8 dereferenceable(8) %110) #10
  %.not.i.i19 = icmp eq ptr %114, null
  br i1 %.not.i.i19, label %_ZN16LIR_OpVisitState7do_tempER7LIR_Opr.exit, label %115

115:                                              ; preds = %109
  %116 = getelementptr inbounds i8, ptr %114, i64 8
  %117 = load i64, ptr %116, align 8
  %118 = and i64 %117, 7
  %.not16.i.i20 = icmp eq i64 %118, 7
  br i1 %.not16.i.i20, label %126, label %119

119:                                              ; preds = %115
  %120 = getelementptr inbounds i8, ptr %1, i64 24
  %121 = getelementptr inbounds i8, ptr %1, i64 12
  %122 = load i32, ptr %121, align 4
  %123 = add nsw i32 %122, 1
  store i32 %123, ptr %121, align 4
  %124 = sext i32 %122 to i64
  %125 = getelementptr inbounds [3 x [21 x ptr]], ptr %120, i64 0, i64 1, i64 %124
  store ptr %116, ptr %125, align 8
  br label %126

126:                                              ; preds = %119, %115
  %127 = getelementptr inbounds i8, ptr %114, i64 16
  %128 = load i64, ptr %127, align 8
  %129 = and i64 %128, 7
  %.not17.i.i21 = icmp eq i64 %129, 7
  br i1 %.not17.i.i21, label %_ZN16LIR_OpVisitState7do_tempER7LIR_Opr.exit, label %.sink.split.i.i17

.sink.split.i.i17:                                ; preds = %_ZN16LIR_OpVisitState9do_outputER7LIR_Opr.exit, %_ZN16LIR_OpVisitState9do_outputER7LIR_Opr.exit, %126
  %.sink.i.i18 = phi ptr [ %127, %126 ], [ %103, %_ZN16LIR_OpVisitState9do_outputER7LIR_Opr.exit ], [ %103, %_ZN16LIR_OpVisitState9do_outputER7LIR_Opr.exit ]
  %130 = getelementptr inbounds i8, ptr %1, i64 24
  %131 = getelementptr inbounds i8, ptr %1, i64 12
  %132 = load i32, ptr %131, align 4
  %133 = add nsw i32 %132, 1
  store i32 %133, ptr %131, align 4
  %134 = sext i32 %132 to i64
  %135 = getelementptr inbounds [3 x [21 x ptr]], ptr %130, i64 0, i64 1, i64 %134
  store ptr %.sink.i.i18, ptr %135, align 8
  br label %_ZN16LIR_OpVisitState7do_tempER7LIR_Opr.exit

_ZN16LIR_OpVisitState7do_tempER7LIR_Opr.exit:     ; preds = %_ZN16LIR_OpVisitState9do_outputER7LIR_Opr.exit, %.sink.split.i.i17, %126, %109, %106
  ret void
}